; ModuleID = 'source-C-CXX/16/243.cpp'
source_filename = "source-C-CXX/16/243.cpp"
target datalayout = "e-m:e-p270:32:32-p271:32:32-p272:64:64-i64:64-f80:128-n8:16:32:64-S128"
target triple = "x86_64-pc-linux-gnu"

%"class.std::ios_base::Init" = type { i8 }
%"class.std::basic_istream" = type { i32 (...)**, i64, %"class.std::basic_ios" }
%"class.std::basic_ios" = type { %"class.std::ios_base", %"class.std::basic_ostream"*, i8, i8, %"class.std::basic_streambuf"*, %"class.std::ctype"*, %"class.std::num_put"*, %"class.std::num_get"* }
%"class.std::ios_base" = type { i32 (...)**, i64, i64, i32, i32, i32, %"struct.std::ios_base::_Callback_list"*, %"struct.std::ios_base::_Words", [8 x %"struct.std::ios_base::_Words"], i32, %"struct.std::ios_base::_Words"*, %"class.std::locale" }
%"struct.std::ios_base::_Callback_list" = type { %"struct.std::ios_base::_Callback_list"*, void (i32, %"class.std::ios_base"*, i32)*, i32, i32 }
%"struct.std::ios_base::_Words" = type { i8*, i64 }
%"class.std::locale" = type { %"class.std::locale::_Impl"* }
%"class.std::locale::_Impl" = type { i32, %"class.std::locale::facet"**, i64, %"class.std::locale::facet"**, i8** }
%"class.std::locale::facet" = type <{ i32 (...)**, i32, [4 x i8] }>
%"class.std::basic_ostream" = type { i32 (...)**, %"class.std::basic_ios" }
%"class.std::basic_streambuf" = type { i32 (...)**, i8*, i8*, i8*, i8*, i8*, i8*, %"class.std::locale" }
%"class.std::ctype" = type <{ %"class.std::locale::facet.base", [4 x i8], %struct.__locale_struct*, i8, [7 x i8], i32*, i32*, i16*, i8, [256 x i8], [256 x i8], i8, [6 x i8] }>
%"class.std::locale::facet.base" = type <{ i32 (...)**, i32 }>
%struct.__locale_struct = type { [13 x %struct.__locale_data*], i16*, i32*, i32*, [13 x i8*] }
%struct.__locale_data = type opaque
%"class.std::num_put" = type { %"class.std::locale::facet.base", [4 x i8] }
%"class.std::num_get" = type { %"class.std::locale::facet.base", [4 x i8] }

@_ZStL8__ioinit = internal global %"class.std::ios_base::Init" zeroinitializer, align 1
@__dso_handle = external hidden global i8
@s = dso_local global [100 x i8] zeroinitializer, align 16
@temp = dso_local local_unnamed_addr global [100 x i32] zeroinitializer, align 16
@addition = dso_local local_unnamed_addr global [100 x i32] zeroinitializer, align 16
@flag = dso_local local_unnamed_addr global i32 0, align 4
@i = dso_local local_unnamed_addr global i32 0, align 4
@j = dso_local local_unnamed_addr global i32 0, align 4
@_ZSt3cin = external global %"class.std::basic_istream", align 8
@_ZSt4cout = external global %"class.std::basic_ostream", align 8
@llvm.global_ctors = appending global [1 x { i32, void ()*, i8* }] [{ i32, void ()*, i8* } { i32 65535, void ()* @_GLOBAL__sub_I_243.cpp, i8* null }]

declare void @_ZNSt8ios_base4InitC1Ev(%"class.std::ios_base::Init"* nonnull align 1 dereferenceable(1)) unnamed_addr #0

; Function Attrs: nounwind
declare void @_ZNSt8ios_base4InitD1Ev(%"class.std::ios_base::Init"* nonnull align 1 dereferenceable(1)) unnamed_addr #1

; Function Attrs: nofree nounwind
declare i32 @__cxa_atexit(void (i8*)*, i8*, i8*) local_unnamed_addr #2

; Function Attrs: mustprogress nofree noreturn nounwind sspstrong uwtable
define dso_local i32 @_Z1fv() local_unnamed_addr #3 {
  %1 = load i32, i32* @flag, align 4, !tbaa !5
  br label %2

2:                                                ; preds = %25, %0
  %3 = phi i64 [ %27, %25 ], [ 0, %0 ]
  %4 = phi i32 [ %26, %25 ], [ %1, %0 ]
  %5 = tail call i64 @strlen(i8* noundef nonnull dereferenceable(1) getelementptr inbounds ([100 x i8], [100 x i8]* @s, i64 0, i64 0)) #9
  %6 = icmp ugt i64 %5, %3
  tail call void @llvm.assume(i1 %6)
  %7 = getelementptr inbounds [100 x i8], [100 x i8]* @s, i64 0, i64 %3
  %8 = load i8, i8* %7, align 1, !tbaa !9
  switch i8 %8, label %24 [
    i8 40, label %9
    i8 41, label %14
  ]

9:                                                ; preds = %2
  store i8 36, i8* %7, align 1, !tbaa !9
  %10 = sext i32 %4 to i64
  %11 = getelementptr inbounds [100 x i32], [100 x i32]* @addition, i64 0, i64 %10
  %12 = trunc i64 %3 to i32
  store i32 %12, i32* %11, align 4, !tbaa !5
  %13 = add nsw i32 %4, 1
  br label %25

14:                                               ; preds = %2
  %15 = icmp eq i32 %4, 0
  br i1 %15, label %23, label %16

16:                                               ; preds = %14
  store i8 32, i8* %7, align 1, !tbaa !9
  %17 = add nsw i32 %4, -1
  %18 = sext i32 %17 to i64
  %19 = getelementptr inbounds [100 x i32], [100 x i32]* @addition, i64 0, i64 %18
  %20 = load i32, i32* %19, align 4, !tbaa !5
  %21 = sext i32 %20 to i64
  %22 = getelementptr inbounds [100 x i8], [100 x i8]* @s, i64 0, i64 %21
  store i8 32, i8* %22, align 1, !tbaa !9
  br label %25

23:                                               ; preds = %14
  store i8 63, i8* %7, align 1, !tbaa !9
  br label %25

24:                                               ; preds = %2
  store i8 32, i8* %7, align 1, !tbaa !9
  br label %25

25:                                               ; preds = %9, %16, %23, %24
  %26 = phi i32 [ %13, %9 ], [ %17, %16 ], [ 0, %23 ], [ %4, %24 ]
  %27 = add nuw i64 %3, 1
  br label %2, !llvm.loop !10
}

; Function Attrs: argmemonly mustprogress nofree nounwind readonly willreturn
declare i64 @strlen(i8* nocapture) local_unnamed_addr #4

; Function Attrs: mustprogress norecurse sspstrong uwtable
define dso_local i32 @main() local_unnamed_addr #5 {
  tail call void @_ZSt17__istream_extractRSiPcl(%"class.std::basic_istream"* nonnull align 8 dereferenceable(16) @_ZSt3cin, i8* nonnull getelementptr inbounds ([100 x i8], [100 x i8]* @s, i64 0, i64 0), i64 100)
  %1 = load i8*, i8** bitcast (%"class.std::basic_istream"* @_ZSt3cin to i8**), align 8, !tbaa !12
  %2 = getelementptr i8, i8* %1, i64 -24
  %3 = bitcast i8* %2 to i64*
  %4 = load i64, i64* %3, align 8
  %5 = add nsw i64 %4, 32
  %6 = getelementptr inbounds i8, i8* bitcast (%"class.std::basic_istream"* @_ZSt3cin to i8*), i64 %5
  %7 = bitcast i8* %6 to i32*
  %8 = load i32, i32* %7, align 8, !tbaa !14
  %9 = and i32 %8, 5
  %10 = icmp eq i32 %9, 0
  br i1 %10, label %11, label %67

11:                                               ; preds = %0
  %12 = tail call i64 @strlen(i8* noundef nonnull dereferenceable(1) getelementptr inbounds ([100 x i8], [100 x i8]* @s, i64 0, i64 0)) #10
  %13 = tail call nonnull align 8 dereferenceable(8) %"class.std::basic_ostream"* @_ZSt16__ostream_insertIcSt11char_traitsIcEERSt13basic_ostreamIT_T0_ES6_PKS3_l(%"class.std::basic_ostream"* nonnull align 8 dereferenceable(8) @_ZSt4cout, i8* nonnull getelementptr inbounds ([100 x i8], [100 x i8]* @s, i64 0, i64 0), i64 %12)
  %14 = load i8*, i8** bitcast (%"class.std::basic_ostream"* @_ZSt4cout to i8**), align 8, !tbaa !12
  %15 = getelementptr i8, i8* %14, i64 -24
  %16 = bitcast i8* %15 to i64*
  %17 = load i64, i64* %16, align 8
  %18 = add nsw i64 %17, 240
  %19 = getelementptr inbounds i8, i8* bitcast (%"class.std::basic_ostream"* @_ZSt4cout to i8*), i64 %18
  %20 = bitcast i8* %19 to %"class.std::ctype"**
  %21 = load %"class.std::ctype"*, %"class.std::ctype"** %20, align 8, !tbaa !22
  %22 = icmp eq %"class.std::ctype"* %21, null
  br i1 %22, label %23, label %24

23:                                               ; preds = %11
  tail call void @_ZSt16__throw_bad_castv() #11
  unreachable

24:                                               ; preds = %11
  %25 = getelementptr inbounds %"class.std::ctype", %"class.std::ctype"* %21, i64 0, i32 8
  %26 = load i8, i8* %25, align 8, !tbaa !25
  %27 = icmp eq i8 %26, 0
  br i1 %27, label %31, label %28

28:                                               ; preds = %24
  %29 = getelementptr inbounds %"class.std::ctype", %"class.std::ctype"* %21, i64 0, i32 9, i64 10
  %30 = load i8, i8* %29, align 1, !tbaa !9
  br label %37

31:                                               ; preds = %24
  tail call void @_ZNKSt5ctypeIcE13_M_widen_initEv(%"class.std::ctype"* nonnull align 8 dereferenceable(570) %21)
  %32 = bitcast %"class.std::ctype"* %21 to i8 (%"class.std::ctype"*, i8)***
  %33 = load i8 (%"class.std::ctype"*, i8)**, i8 (%"class.std::ctype"*, i8)*** %32, align 8, !tbaa !12
  %34 = getelementptr inbounds i8 (%"class.std::ctype"*, i8)*, i8 (%"class.std::ctype"*, i8)** %33, i64 6
  %35 = load i8 (%"class.std::ctype"*, i8)*, i8 (%"class.std::ctype"*, i8)** %34, align 8
  %36 = tail call signext i8 %35(%"class.std::ctype"* nonnull align 8 dereferenceable(570) %21, i8 signext 10)
  br label %37

37:                                               ; preds = %28, %31
  %38 = phi i8 [ %30, %28 ], [ %36, %31 ]
  %39 = tail call nonnull align 8 dereferenceable(8) %"class.std::basic_ostream"* @_ZNSo3putEc(%"class.std::basic_ostream"* nonnull align 8 dereferenceable(8) @_ZSt4cout, i8 signext %38)
  %40 = tail call nonnull align 8 dereferenceable(8) %"class.std::basic_ostream"* @_ZNSo5flushEv(%"class.std::basic_ostream"* nonnull align 8 dereferenceable(8) %39)
  store i32 0, i32* @flag, align 4, !tbaa !5
  br label %41

41:                                               ; preds = %64, %37
  %42 = phi i64 [ %66, %64 ], [ 0, %37 ]
  %43 = phi i32 [ %65, %64 ], [ 0, %37 ]
  %44 = tail call i64 @strlen(i8* noundef nonnull dereferenceable(1) getelementptr inbounds ([100 x i8], [100 x i8]* @s, i64 0, i64 0)) #9
  %45 = icmp ugt i64 %44, %42
  tail call void @llvm.assume(i1 %45) #10
  %46 = getelementptr inbounds [100 x i8], [100 x i8]* @s, i64 0, i64 %42
  %47 = load i8, i8* %46, align 1, !tbaa !9
  switch i8 %47, label %63 [
    i8 40, label %48
    i8 41, label %53
  ]

48:                                               ; preds = %41
  store i8 36, i8* %46, align 1, !tbaa !9
  %49 = sext i32 %43 to i64
  %50 = getelementptr inbounds [100 x i32], [100 x i32]* @addition, i64 0, i64 %49
  %51 = trunc i64 %42 to i32
  store i32 %51, i32* %50, align 4, !tbaa !5
  %52 = add nsw i32 %43, 1
  br label %64

53:                                               ; preds = %41
  %54 = icmp eq i32 %43, 0
  br i1 %54, label %62, label %55

55:                                               ; preds = %53
  store i8 32, i8* %46, align 1, !tbaa !9
  %56 = add nsw i32 %43, -1
  %57 = sext i32 %56 to i64
  %58 = getelementptr inbounds [100 x i32], [100 x i32]* @addition, i64 0, i64 %57
  %59 = load i32, i32* %58, align 4, !tbaa !5
  %60 = sext i32 %59 to i64
  %61 = getelementptr inbounds [100 x i8], [100 x i8]* @s, i64 0, i64 %60
  store i8 32, i8* %61, align 1, !tbaa !9
  br label %64

62:                                               ; preds = %53
  store i8 63, i8* %46, align 1, !tbaa !9
  br label %64

63:                                               ; preds = %41
  store i8 32, i8* %46, align 1, !tbaa !9
  br label %64

64:                                               ; preds = %63, %62, %55, %48
  %65 = phi i32 [ %52, %48 ], [ %56, %55 ], [ 0, %62 ], [ %43, %63 ]
  %66 = add nuw i64 %42, 1
  br label %41, !llvm.loop !10

67:                                               ; preds = %0
  ret i32 0
}

declare void @_ZSt17__istream_extractRSiPcl(%"class.std::basic_istream"* nonnull align 8 dereferenceable(16), i8*, i64) local_unnamed_addr #0

declare nonnull align 8 dereferenceable(8) %"class.std::basic_ostream"* @_ZSt16__ostream_insertIcSt11char_traitsIcEERSt13basic_ostreamIT_T0_ES6_PKS3_l(%"class.std::basic_ostream"* nonnull align 8 dereferenceable(8), i8*, i64) local_unnamed_addr #0

declare nonnull align 8 dereferenceable(8) %"class.std::basic_ostream"* @_ZNSo3putEc(%"class.std::basic_ostream"* nonnull align 8 dereferenceable(8), i8 signext) local_unnamed_addr #0

declare nonnull align 8 dereferenceable(8) %"class.std::basic_ostream"* @_ZNSo5flushEv(%"class.std::basic_ostream"* nonnull align 8 dereferenceable(8)) local_unnamed_addr #0

; Function Attrs: noreturn
declare void @_ZSt16__throw_bad_castv() local_unnamed_addr #6

declare void @_ZNKSt5ctypeIcE13_M_widen_initEv(%"class.std::ctype"* nonnull align 8 dereferenceable(570)) local_unnamed_addr #0

; Function Attrs: sspstrong uwtable
define internal void @_GLOBAL__sub_I_243.cpp() #7 section ".text.startup" {
  tail call void @_ZNSt8ios_base4InitC1Ev(%"class.std::ios_base::Init"* nonnull align 1 dereferenceable(1) @_ZStL8__ioinit)
  %1 = tail call i32 @__cxa_atexit(void (i8*)* bitcast (void (%"class.std::ios_base::Init"*)* @_ZNSt8ios_base4InitD1Ev to void (i8*)*), i8* getelementptr inbounds (%"class.std::ios_base::Init", %"class.std::ios_base::Init"* @_ZStL8__ioinit, i64 0, i32 0), i8* nonnull @__dso_handle) #10
  ret void
}

; Function Attrs: inaccessiblememonly nofree nosync nounwind willreturn
declare void @llvm.assume(i1 noundef) #8


!llvm.module.flags = !{!0, !1, !2, !3}
!llvm.ident = !{!4}

!0 = !{i32 1, !"wchar_size", i32 4}
!1 = !{i32 7, !"PIC Level", i32 2}
!2 = !{i32 7, !"PIE Level", i32 2}
!3 = !{i32 7, !"uwtable", i32 1}
!4 = !{!"clang version 13.0.0"}
!5 = !{!6, !6, i64 0}
!6 = !{!"int", !7, i64 0}
!7 = !{!"omnipotent char", !8, i64 0}
!8 = !{!"Simple C++ TBAA"}
!9 = !{!7, !7, i64 0}
!10 = distinct !{!10, !11}
!11 = !{!"llvm.loop.mustprogress"}
!12 = !{!13, !13, i64 0}
!13 = !{!"vtable pointer", !8, i64 0}
!14 = !{!15, !18, i64 32}
!15 = !{!"_ZTSSt8ios_base", !16, i64 8, !16, i64 16, !17, i64 24, !18, i64 28, !18, i64 32, !19, i64 40, !20, i64 48, !7, i64 64, !6, i64 192, !19, i64 200, !21, i64 208}
!16 = !{!"long", !7, i64 0}
!17 = !{!"_ZTSSt13_Ios_Fmtflags", !7, i64 0}
!18 = !{!"_ZTSSt12_Ios_Iostate", !7, i64 0}
!19 = !{!"any pointer", !7, i64 0}
!20 = !{!"_ZTSNSt8ios_base6_WordsE", !19, i64 0, !16, i64 8}
!21 = !{!"_ZTSSt6locale", !19, i64 0}
!22 = !{!23, !19, i64 240}
!23 = !{!"_ZTSSt9basic_iosIcSt11char_traitsIcEE", !19, i64 216, !7, i64 224, !24, i64 225, !19, i64 232, !19, i64 240, !19, i64 248, !19, i64 256}
!24 = !{!"bool", !7, i64 0}
!25 = !{!26, !7, i64 56}
!26 = !{!"_ZTSSt5ctypeIcE", !19, i64 16, !24, i64 24, !19, i64 32, !19, i64 40, !19, i64 48, !7, i64 56, !7, i64 57, !7, i64 313, !7, i64 569}
